target datalayout = "e-m:e-p270:32:32-p271:32:32-p272:64:64-i64:64-i128:128-f80:128-n8:16:32:64-S128"
target triple = "x86_64-pc-linux-gnu"

%struct.ZSTD_bounds = type { i64, i32, i32 }

; Function Attrs: nounwind uwtable
define dso_local i32 @ZSTD_maxCLevel() #0 {
  ret i32 22
}

; Function Attrs: nounwind uwtable
define dso_local i32 @ZSTD_minCLevel() #0 {
  ret i32 -131072
}

; Function Attrs: nounwind uwtable
define dso_local { i64, i64 } @ZSTD_cParam_getBounds(i32 noundef %0) #0 {
  %2 = alloca %struct.ZSTD_bounds, align 8
  %3 = alloca i32, align 4
  store i32 %0, ptr %3, align 4
  call void @llvm.memset.p0.i64(ptr align 8 %2, i8 0, i64 16, i1 false)
  %4 = load i32, ptr %3, align 4
  switch i32 %4, label %118 [
    i32 100, label %5
    i32 101, label %10
    i32 102, label %13
    i32 103, label %16
    i32 104, label %19
    i32 105, label %22
    i32 106, label %25
    i32 107, label %28
    i32 200, label %31
    i32 201, label %34
    i32 202, label %37
    i32 400, label %40
    i32 401, label %43
    i32 402, label %46
    i32 1005, label %49
    i32 160, label %52
    i32 161, label %55
    i32 162, label %58
    i32 163, label %61
    i32 164, label %64
    i32 500, label %67
    i32 1000, label %70
    i32 10, label %73
    i32 1001, label %76
    i32 1002, label %79
    i32 1003, label %82
    i32 1004, label %85
    i32 1006, label %88
    i32 1007, label %88
    i32 1008, label %91
    i32 1009, label %94
    i32 1010, label %97
    i32 1011, label %100
    i32 1012, label %103
    i32 1013, label %106
    i32 1014, label %109
    i32 1015, label %112
    i32 1016, label %115
  ]

5:                                                ; preds = %1
  %6 = call i32 @ZSTD_minCLevel()
  %7 = getelementptr inbounds %struct.ZSTD_bounds, ptr %2, i32 0, i32 1
  store i32 %6, ptr %7, align 8
  %8 = call i32 @ZSTD_maxCLevel()
  %9 = getelementptr inbounds %struct.ZSTD_bounds, ptr %2, i32 0, i32 2
  store i32 %8, ptr %9, align 4
  br label %120

10:                                               ; preds = %1
  %11 = getelementptr inbounds %struct.ZSTD_bounds, ptr %2, i32 0, i32 1
  store i32 10, ptr %11, align 8
  %12 = getelementptr inbounds %struct.ZSTD_bounds, ptr %2, i32 0, i32 2
  store i32 31, ptr %12, align 4
  br label %120

13:                                               ; preds = %1
  %14 = getelementptr inbounds %struct.ZSTD_bounds, ptr %2, i32 0, i32 1
  store i32 6, ptr %14, align 8
  %15 = getelementptr inbounds %struct.ZSTD_bounds, ptr %2, i32 0, i32 2
  store i32 30, ptr %15, align 4
  br label %120

16:                                               ; preds = %1
  %17 = getelementptr inbounds %struct.ZSTD_bounds, ptr %2, i32 0, i32 1
  store i32 6, ptr %17, align 8
  %18 = getelementptr inbounds %struct.ZSTD_bounds, ptr %2, i32 0, i32 2
  store i32 30, ptr %18, align 4
  br label %120

19:                                               ; preds = %1
  %20 = getelementptr inbounds %struct.ZSTD_bounds, ptr %2, i32 0, i32 1
  store i32 1, ptr %20, align 8
  %21 = getelementptr inbounds %struct.ZSTD_bounds, ptr %2, i32 0, i32 2
  store i32 30, ptr %21, align 4
  br label %120

22:                                               ; preds = %1
  %23 = getelementptr inbounds %struct.ZSTD_bounds, ptr %2, i32 0, i32 1
  store i32 3, ptr %23, align 8
  %24 = getelementptr inbounds %struct.ZSTD_bounds, ptr %2, i32 0, i32 2
  store i32 7, ptr %24, align 4
  br label %120

25:                                               ; preds = %1
  %26 = getelementptr inbounds %struct.ZSTD_bounds, ptr %2, i32 0, i32 1
  store i32 0, ptr %26, align 8
  %27 = getelementptr inbounds %struct.ZSTD_bounds, ptr %2, i32 0, i32 2
  store i32 131072, ptr %27, align 4
  br label %120

28:                                               ; preds = %1
  %29 = getelementptr inbounds %struct.ZSTD_bounds, ptr %2, i32 0, i32 1
  store i32 1, ptr %29, align 8
  %30 = getelementptr inbounds %struct.ZSTD_bounds, ptr %2, i32 0, i32 2
  store i32 9, ptr %30, align 4
  br label %120

31:                                               ; preds = %1
  %32 = getelementptr inbounds %struct.ZSTD_bounds, ptr %2, i32 0, i32 1
  store i32 0, ptr %32, align 8
  %33 = getelementptr inbounds %struct.ZSTD_bounds, ptr %2, i32 0, i32 2
  store i32 1, ptr %33, align 4
  br label %120

34:                                               ; preds = %1
  %35 = getelementptr inbounds %struct.ZSTD_bounds, ptr %2, i32 0, i32 1
  store i32 0, ptr %35, align 8
  %36 = getelementptr inbounds %struct.ZSTD_bounds, ptr %2, i32 0, i32 2
  store i32 1, ptr %36, align 4
  br label %120

37:                                               ; preds = %1
  %38 = getelementptr inbounds %struct.ZSTD_bounds, ptr %2, i32 0, i32 1
  store i32 0, ptr %38, align 8
  %39 = getelementptr inbounds %struct.ZSTD_bounds, ptr %2, i32 0, i32 2
  store i32 1, ptr %39, align 4
  br label %120

40:                                               ; preds = %1
  %41 = getelementptr inbounds %struct.ZSTD_bounds, ptr %2, i32 0, i32 1
  store i32 0, ptr %41, align 8
  %42 = getelementptr inbounds %struct.ZSTD_bounds, ptr %2, i32 0, i32 2
  store i32 0, ptr %42, align 4
  br label %120

43:                                               ; preds = %1
  %44 = getelementptr inbounds %struct.ZSTD_bounds, ptr %2, i32 0, i32 1
  store i32 0, ptr %44, align 8
  %45 = getelementptr inbounds %struct.ZSTD_bounds, ptr %2, i32 0, i32 2
  store i32 0, ptr %45, align 4
  br label %120

46:                                               ; preds = %1
  %47 = getelementptr inbounds %struct.ZSTD_bounds, ptr %2, i32 0, i32 1
  store i32 0, ptr %47, align 8
  %48 = getelementptr inbounds %struct.ZSTD_bounds, ptr %2, i32 0, i32 2
  store i32 0, ptr %48, align 4
  br label %120

49:                                               ; preds = %1
  %50 = getelementptr inbounds %struct.ZSTD_bounds, ptr %2, i32 0, i32 1
  store i32 0, ptr %50, align 8
  %51 = getelementptr inbounds %struct.ZSTD_bounds, ptr %2, i32 0, i32 2
  store i32 1, ptr %51, align 4
  br label %120

52:                                               ; preds = %1
  %53 = getelementptr inbounds %struct.ZSTD_bounds, ptr %2, i32 0, i32 1
  store i32 0, ptr %53, align 8
  %54 = getelementptr inbounds %struct.ZSTD_bounds, ptr %2, i32 0, i32 2
  store i32 2, ptr %54, align 4
  br label %120

55:                                               ; preds = %1
  %56 = getelementptr inbounds %struct.ZSTD_bounds, ptr %2, i32 0, i32 1
  store i32 6, ptr %56, align 8
  %57 = getelementptr inbounds %struct.ZSTD_bounds, ptr %2, i32 0, i32 2
  store i32 30, ptr %57, align 4
  br label %120

58:                                               ; preds = %1
  %59 = getelementptr inbounds %struct.ZSTD_bounds, ptr %2, i32 0, i32 1
  store i32 4, ptr %59, align 8
  %60 = getelementptr inbounds %struct.ZSTD_bounds, ptr %2, i32 0, i32 2
  store i32 4096, ptr %60, align 4
  br label %120

61:                                               ; preds = %1
  %62 = getelementptr inbounds %struct.ZSTD_bounds, ptr %2, i32 0, i32 1
  store i32 1, ptr %62, align 8
  %63 = getelementptr inbounds %struct.ZSTD_bounds, ptr %2, i32 0, i32 2
  store i32 8, ptr %63, align 4
  br label %120

64:                                               ; preds = %1
  %65 = getelementptr inbounds %struct.ZSTD_bounds, ptr %2, i32 0, i32 1
  store i32 0, ptr %65, align 8
  %66 = getelementptr inbounds %struct.ZSTD_bounds, ptr %2, i32 0, i32 2
  store i32 25, ptr %66, align 4
  br label %120

67:                                               ; preds = %1
  %68 = getelementptr inbounds %struct.ZSTD_bounds, ptr %2, i32 0, i32 1
  store i32 0, ptr %68, align 8
  %69 = getelementptr inbounds %struct.ZSTD_bounds, ptr %2, i32 0, i32 2
  store i32 1, ptr %69, align 4
  br label %120

70:                                               ; preds = %1
  %71 = getelementptr inbounds %struct.ZSTD_bounds, ptr %2, i32 0, i32 1
  store i32 0, ptr %71, align 8
  %72 = getelementptr inbounds %struct.ZSTD_bounds, ptr %2, i32 0, i32 2
  store i32 1, ptr %72, align 4
  br label %120

73:                                               ; preds = %1
  %74 = getelementptr inbounds %struct.ZSTD_bounds, ptr %2, i32 0, i32 1
  store i32 0, ptr %74, align 8
  %75 = getelementptr inbounds %struct.ZSTD_bounds, ptr %2, i32 0, i32 2
  store i32 1, ptr %75, align 4
  br label %120

76:                                               ; preds = %1
  %77 = getelementptr inbounds %struct.ZSTD_bounds, ptr %2, i32 0, i32 1
  store i32 0, ptr %77, align 8
  %78 = getelementptr inbounds %struct.ZSTD_bounds, ptr %2, i32 0, i32 2
  store i32 3, ptr %78, align 4
  br label %120

79:                                               ; preds = %1
  %80 = getelementptr inbounds %struct.ZSTD_bounds, ptr %2, i32 0, i32 1
  store i32 0, ptr %80, align 8
  %81 = getelementptr inbounds %struct.ZSTD_bounds, ptr %2, i32 0, i32 2
  store i32 2, ptr %81, align 4
  br label %120

82:                                               ; preds = %1
  %83 = getelementptr inbounds %struct.ZSTD_bounds, ptr %2, i32 0, i32 1
  store i32 64, ptr %83, align 8
  %84 = getelementptr inbounds %struct.ZSTD_bounds, ptr %2, i32 0, i32 2
  store i32 131072, ptr %84, align 4
  br label %120

85:                                               ; preds = %1
  %86 = getelementptr inbounds %struct.ZSTD_bounds, ptr %2, i32 0, i32 1
  store i32 0, ptr %86, align 8
  %87 = getelementptr inbounds %struct.ZSTD_bounds, ptr %2, i32 0, i32 2
  store i32 2147483647, ptr %87, align 4
  br label %120

88:                                               ; preds = %1, %1
  %89 = getelementptr inbounds %struct.ZSTD_bounds, ptr %2, i32 0, i32 1
  store i32 0, ptr %89, align 8
  %90 = getelementptr inbounds %struct.ZSTD_bounds, ptr %2, i32 0, i32 2
  store i32 1, ptr %90, align 4
  br label %120

91:                                               ; preds = %1
  %92 = getelementptr inbounds %struct.ZSTD_bounds, ptr %2, i32 0, i32 1
  store i32 0, ptr %92, align 8
  %93 = getelementptr inbounds %struct.ZSTD_bounds, ptr %2, i32 0, i32 2
  store i32 1, ptr %93, align 4
  br label %120

94:                                               ; preds = %1
  %95 = getelementptr inbounds %struct.ZSTD_bounds, ptr %2, i32 0, i32 1
  store i32 0, ptr %95, align 8
  %96 = getelementptr inbounds %struct.ZSTD_bounds, ptr %2, i32 0, i32 2
  store i32 1, ptr %96, align 4
  br label %120

97:                                               ; preds = %1
  %98 = getelementptr inbounds %struct.ZSTD_bounds, ptr %2, i32 0, i32 1
  store i32 0, ptr %98, align 8
  %99 = getelementptr inbounds %struct.ZSTD_bounds, ptr %2, i32 0, i32 2
  store i32 2, ptr %99, align 4
  br label %120

100:                                              ; preds = %1
  %101 = getelementptr inbounds %struct.ZSTD_bounds, ptr %2, i32 0, i32 1
  store i32 0, ptr %101, align 8
  %102 = getelementptr inbounds %struct.ZSTD_bounds, ptr %2, i32 0, i32 2
  store i32 2, ptr %102, align 4
  br label %120

103:                                              ; preds = %1
  %104 = getelementptr inbounds %struct.ZSTD_bounds, ptr %2, i32 0, i32 1
  store i32 0, ptr %104, align 8
  %105 = getelementptr inbounds %struct.ZSTD_bounds, ptr %2, i32 0, i32 2
  store i32 1, ptr %105, align 4
  br label %120

106:                                              ; preds = %1
  %107 = getelementptr inbounds %struct.ZSTD_bounds, ptr %2, i32 0, i32 1
  store i32 0, ptr %107, align 8
  %108 = getelementptr inbounds %struct.ZSTD_bounds, ptr %2, i32 0, i32 2
  store i32 2, ptr %108, align 4
  br label %120

109:                                              ; preds = %1
  %110 = getelementptr inbounds %struct.ZSTD_bounds, ptr %2, i32 0, i32 1
  store i32 0, ptr %110, align 8
  %111 = getelementptr inbounds %struct.ZSTD_bounds, ptr %2, i32 0, i32 2
  store i32 1, ptr %111, align 4
  br label %120

112:                                              ; preds = %1
  %113 = getelementptr inbounds %struct.ZSTD_bounds, ptr %2, i32 0, i32 1
  store i32 1024, ptr %113, align 8
  %114 = getelementptr inbounds %struct.ZSTD_bounds, ptr %2, i32 0, i32 2
  store i32 131072, ptr %114, align 4
  br label %120

115:                                              ; preds = %1
  %116 = getelementptr inbounds %struct.ZSTD_bounds, ptr %2, i32 0, i32 1
  store i32 0, ptr %116, align 8
  %117 = getelementptr inbounds %struct.ZSTD_bounds, ptr %2, i32 0, i32 2
  store i32 2, ptr %117, align 4
  br label %120

118:                                              ; preds = %1
  %119 = getelementptr inbounds %struct.ZSTD_bounds, ptr %2, i32 0, i32 0
  store i64 -40, ptr %119, align 8
  br label %120

120:                                              ; preds = %118, %115, %112, %109, %106, %103, %100, %97, %94, %91, %88, %85, %82, %79, %76, %73, %70, %67, %64, %61, %58, %55, %52, %49, %46, %43, %40, %37, %34, %31, %28, %25, %22, %19, %16, %13, %10, %5
  %121 = load { i64, i64 }, ptr %2, align 8
  ret { i64, i64 } %121
}